; Function Attrs: mustprogress nounwind uwtable
define hidden noundef ptr @_ZN8GraphKit24make_constant_from_fieldEP7ciFieldP4Node(ptr nocapture noundef nonnull readonly align 8 dereferenceable(84) %0, ptr noundef %1, ptr noundef %2) local_unnamed_addr #0 align 2 {
  %4 = getelementptr inbounds i8, ptr %1, i64 44
  %5 = load i8, ptr %4, align 4
  %6 = trunc i8 %5 to i1
  br i1 %6, label %7, label %37

7:                                                ; preds = %3
  %.sroa.0.0.copyload.i.i = load i64, ptr %1, align 8
  %8 = and i64 %.sroa.0.0.copyload.i.i, 8
  %.not17 = icmp eq i64 %8, 0
  br i1 %.not17, label %9, label %21

9:                                                ; preds = %7
  %10 = load ptr, ptr %2, align 8
  %11 = getelementptr inbounds i8, ptr %10, i64 40
  %12 = load ptr, ptr %11, align 8
  %13 = tail call noundef ptr %12(ptr noundef nonnull align 8 dereferenceable(52) %2) #13
  %14 = getelementptr inbounds i8, ptr %13, i64 48
  %15 = load ptr, ptr %14, align 8
  %.not = icmp eq ptr %15, null
  br i1 %.not, label %21, label %16

16:                                               ; preds = %9
  %17 = load ptr, ptr %15, align 8
  %18 = getelementptr inbounds i8, ptr %17, i64 56
  %19 = load ptr, ptr %18, align 8
  %20 = tail call noundef zeroext i1 %19(ptr noundef nonnull align 8 dereferenceable(40) %15) #13
  %spec.select = select i1 %20, ptr %15, ptr null
  br label %21

21:                                               ; preds = %16, %9, %7
  %.013 = phi ptr [ null, %7 ], [ null, %9 ], [ %spec.select, %16 ]
  %22 = getelementptr inbounds i8, ptr %1, i64 32
  %23 = load ptr, ptr %22, align 8
  %24 = icmp eq ptr %23, null
  br i1 %24, label %_ZN7ciField11layout_typeEv.exit, label %25

25:                                               ; preds = %21
  %26 = getelementptr inbounds i8, ptr %23, i64 24
  %27 = load i8, ptr %26, align 8
  %28 = zext i8 %27 to i64
  br label %_ZN7ciField11layout_typeEv.exit

_ZN7ciField11layout_typeEv.exit:                  ; preds = %21, %25
  %29 = phi i64 [ %28, %25 ], [ 12, %21 ]
  %30 = getelementptr inbounds [20 x i8], ptr @type2field, i64 0, i64 %29
  %31 = load i8, ptr %30, align 1
  %32 = tail call noundef ptr @_ZN4Type24make_constant_from_fieldEP7ciFieldP10ciInstance9BasicTypeb(ptr noundef nonnull %1, ptr noundef %.013, i8 noundef zeroext %31, i1 noundef zeroext false) #13
  %.not16 = icmp eq ptr %32, null
  br i1 %.not16, label %37, label %33

33:                                               ; preds = %_ZN7ciField11layout_typeEv.exit
  %34 = getelementptr inbounds i8, ptr %0, i64 32
  %35 = load ptr, ptr %34, align 8
  %36 = tail call noundef ptr @_ZN11PhaseValues7makeconEPK4Type(ptr noundef nonnull align 8 dereferenceable(2400) %35, ptr noundef nonnull %32) #13
  br label %37

37:                                               ; preds = %_ZN7ciField11layout_typeEv.exit, %3, %33
  %.0 = phi ptr [ %36, %33 ], [ null, %3 ], [ null, %_ZN7ciField11layout_typeEv.exit ]
  ret ptr %.0
}